; Function Attrs: mustprogress uwtable
define hidden void @_ZN2lp10hnf_cutter5printERSo(ptr nocapture noundef nonnull readonly align 8 dereferenceable(208) %this, ptr noundef nonnull align 8 dereferenceable(8) %out) local_unnamed_addr #3 align 2 {
entry:
  %call = tail call noundef nonnull align 8 dereferenceable(8) ptr @_ZStlsISt11char_traitsIcEERSt13basic_ostreamIcT_ES5_PKc(ptr noundef nonnull align 8 dereferenceable(8) %out, ptr noundef nonnull @.str)
  %m_terms = getelementptr inbounds i8, ptr %this, i64 64
  %0 = load ptr, ptr %m_terms, align 8
  %cmp.i = icmp eq ptr %0, null
  br i1 %cmp.i, label %_ZNK6vectorIPKN2lp8lar_termELb1EjE4sizeEv.exit, label %if.end.i

if.end.i:                                         ; preds = %entry
  %arrayidx.i = getelementptr inbounds i8, ptr %0, i64 -4
  %1 = load i32, ptr %arrayidx.i, align 4
  br label %_ZNK6vectorIPKN2lp8lar_termELb1EjE4sizeEv.exit

_ZNK6vectorIPKN2lp8lar_termELb1EjE4sizeEv.exit:   ; preds = %entry, %if.end.i
  %retval.0.i = phi i32 [ %1, %if.end.i ], [ 0, %entry ]
  %call3 = tail call noundef nonnull align 8 dereferenceable(8) ptr @_ZNSolsEj(ptr noundef nonnull align 8 dereferenceable(8) %call, i32 noundef %retval.0.i)
  %call4 = tail call noundef nonnull align 8 dereferenceable(8) ptr @_ZStlsISt11char_traitsIcEERSt13basic_ostreamIcT_ES5_PKc(ptr noundef nonnull align 8 dereferenceable(8) %call3, ptr noundef nonnull @.str.4)
  %m_var_register = getelementptr inbounds i8, ptr %this, i64 136
  %2 = load ptr, ptr %m_var_register, align 8
  %cmp.i.i = icmp eq ptr %2, null
  br i1 %cmp.i.i, label %_ZNK2lp12var_register4sizeEv.exit, label %if.end.i.i

if.end.i.i:                                       ; preds = %_ZNK6vectorIPKN2lp8lar_termELb1EjE4sizeEv.exit
  %arrayidx.i.i = getelementptr inbounds i8, ptr %2, i64 -4
  %3 = load i32, ptr %arrayidx.i.i, align 4
  br label %_ZNK2lp12var_register4sizeEv.exit

_ZNK2lp12var_register4sizeEv.exit:                ; preds = %_ZNK6vectorIPKN2lp8lar_termELb1EjE4sizeEv.exit, %if.end.i.i
  %retval.0.i.i = phi i32 [ %3, %if.end.i.i ], [ 0, %_ZNK6vectorIPKN2lp8lar_termELb1EjE4sizeEv.exit ]
  %call6 = tail call noundef nonnull align 8 dereferenceable(8) ptr @_ZNSolsEj(ptr noundef nonnull align 8 dereferenceable(8) %call4, i32 noundef %retval.0.i.i)
  %call7 = tail call noundef nonnull align 8 dereferenceable(8) ptr @_ZNSolsEPFRSoS_E(ptr noundef nonnull align 8 dereferenceable(8) %call6, ptr noundef nonnull @_ZSt4endlIcSt11char_traitsIcEERSt13basic_ostreamIT_T0_ES6_)
  ret void
}